target datalayout = "e-m:e-p270:32:32-p271:32:32-p272:64:64-i64:64-i128:128-f80:128-n8:16:32:64-S128"
target triple = "x86_64-pc-linux-gnu"

%struct.Agraph_s = type { %struct.Agobj_s, %struct.Agdesc_s, %struct._dtlink_s, %struct._dtlink_s, ptr, ptr, ptr, ptr, ptr, ptr, ptr, ptr, ptr }
%struct.Agobj_s = type { %struct.Agtag_s, ptr }
%struct.Agtag_s = type { i32, i64 }
%struct.Agdesc_s = type { i8, [3 x i8] }
%struct._dtlink_s = type { ptr, %union.anon }
%union.anon = type { ptr }
%struct.Agclos_s = type { %struct.Agdisc_s, %struct.Agdstate_s, ptr, [3 x i64], ptr, [3 x ptr], [3 x ptr] }
%struct.Agdisc_s = type { ptr, ptr }
%struct.Agdstate_s = type { ptr }
%struct.Agiodisc_s = type { ptr, ptr, ptr }

@.str.1 = private unnamed_addr constant [5 x i8] c"<%s>\00", align 1
@getoutputbuffer.rv = internal global ptr null, align 8
@getoutputbuffer.len = internal global i64 0, align 8

; Function Attrs: nounwind uwtable
define internal ptr @agcanonhtmlstr(ptr noundef %0, ptr noundef %1) #0 {
  %3 = alloca ptr, align 8
  %4 = alloca ptr, align 8
  store ptr %0, ptr %3, align 8
  store ptr %1, ptr %4, align 8
  %5 = load ptr, ptr %4, align 8
  %6 = load ptr, ptr %3, align 8
  %7 = call i32 (ptr, ptr, ...) @sprintf(ptr noundef %5, ptr noundef @.str.1, ptr noundef %6) #5
  %8 = load ptr, ptr %4, align 8
  ret ptr %8
}

; Function Attrs: nounwind uwtable
define ptr @agstrcanon(ptr noundef %0, ptr noundef %1) #0 {
  %3 = alloca ptr, align 8
  %4 = alloca ptr, align 8
  %5 = alloca ptr, align 8
  store ptr %0, ptr %4, align 8
  store ptr %1, ptr %5, align 8
  %6 = load ptr, ptr %4, align 8
  %7 = call i32 @aghtmlstr(ptr noundef %6)
  %8 = icmp ne i32 %7, 0
  br i1 %8, label %9, label %13

9:                                                ; preds = %2
  %10 = load ptr, ptr %4, align 8
  %11 = load ptr, ptr %5, align 8
  %12 = call ptr @agcanonhtmlstr(ptr noundef %10, ptr noundef %11)
  store ptr %12, ptr %3, align 8
  br label %17

13:                                               ; preds = %2
  %14 = load ptr, ptr %4, align 8
  %15 = load ptr, ptr %5, align 8
  %16 = call ptr @_agstrcanon(ptr noundef %14, ptr noundef %15)
  store ptr %16, ptr %3, align 8
  br label %17

17:                                               ; preds = %13, %9
  %18 = load ptr, ptr %3, align 8
  ret ptr %18
}

; Function Attrs: nounwind uwtable
define internal i32 @ioput(ptr noundef %0, ptr noundef %1, ptr noundef %2) #0 {
  %4 = alloca ptr, align 8
  %5 = alloca ptr, align 8
  %6 = alloca ptr, align 8
  store ptr %0, ptr %4, align 8
  store ptr %1, ptr %5, align 8
  store ptr %2, ptr %6, align 8
  %7 = load ptr, ptr %4, align 8
  %8 = getelementptr inbounds %struct.Agraph_s, ptr %7, i32 0, i32 12
  %9 = load ptr, ptr %8, align 8
  %10 = getelementptr inbounds %struct.Agclos_s, ptr %9, i32 0, i32 0
  %11 = getelementptr inbounds %struct.Agdisc_s, ptr %10, i32 0, i32 1
  %12 = load ptr, ptr %11, align 8
  %13 = getelementptr inbounds %struct.Agiodisc_s, ptr %12, i32 0, i32 1
  %14 = load ptr, ptr %13, align 8
  %15 = load ptr, ptr %5, align 8
  %16 = load ptr, ptr %6, align 8
  %17 = call i32 %14(ptr noundef %15, ptr noundef %16)
  ret i32 %17
}

; Function Attrs: nounwind uwtable
define internal ptr @getoutputbuffer(ptr noundef %0) #0 {
  %2 = alloca ptr, align 8
  %3 = alloca ptr, align 8
  %4 = alloca i64, align 8
  %5 = alloca ptr, align 8
  store ptr %0, ptr %3, align 8
  %6 = load ptr, ptr %3, align 8
  %7 = call i64 @strlen(ptr noundef %6) #6
  %8 = mul i64 2, %7
  %9 = add i64 %8, 2
  %10 = icmp ugt i64 %9, 8192
  br i1 %10, label %11, label %16

11:                                               ; preds = %1
  %12 = load ptr, ptr %3, align 8
  %13 = call i64 @strlen(ptr noundef %12) #6
  %14 = mul i64 2, %13
  %15 = add i64 %14, 2
  br label %17

16:                                               ; preds = %1
  br label %17

17:                                               ; preds = %16, %11
  %18 = phi i64 [ %15, %11 ], [ 8192, %16 ]
  store i64 %18, ptr %4, align 8
  %19 = load i64, ptr %4, align 8
  %20 = load i64, ptr @getoutputbuffer.len, align 8
  %21 = icmp ugt i64 %19, %20
  br i1 %21, label %22, label %32

22:                                               ; preds = %17
  %23 = load ptr, ptr @getoutputbuffer.rv, align 8
  %24 = load i64, ptr %4, align 8
  %25 = call ptr @realloc(ptr noundef %23, i64 noundef %24) #7
  store ptr %25, ptr %5, align 8
  %26 = load ptr, ptr %5, align 8
  %27 = icmp eq ptr %26, null
  br i1 %27, label %28, label %29

28:                                               ; preds = %22
  store ptr null, ptr %2, align 8
  br label %34

29:                                               ; preds = %22
  %30 = load ptr, ptr %5, align 8
  store ptr %30, ptr @getoutputbuffer.rv, align 8
  %31 = load i64, ptr %4, align 8
  store i64 %31, ptr @getoutputbuffer.len, align 8
  br label %32

32:                                               ; preds = %29, %17
  %33 = load ptr, ptr @getoutputbuffer.rv, align 8
  store ptr %33, ptr %2, align 8
  br label %34

34:                                               ; preds = %32, %28
  %35 = load ptr, ptr %2, align 8
  ret ptr %35
}

; Function Attrs: nounwind uwtable
define ptr @agcanonStr(ptr noundef %0) #0 {
  %2 = alloca ptr, align 8
  %3 = alloca ptr, align 8
  %4 = alloca ptr, align 8
  store ptr %0, ptr %3, align 8
  %5 = load ptr, ptr %3, align 8
  %6 = call ptr @getoutputbuffer(ptr noundef %5)
  store ptr %6, ptr %4, align 8
  %7 = load ptr, ptr %4, align 8
  %8 = icmp eq ptr %7, null
  br i1 %8, label %9, label %10

9:                                                ; preds = %1
  store ptr null, ptr %2, align 8
  br label %14

10:                                               ; preds = %1
  %11 = load ptr, ptr %3, align 8
  %12 = load ptr, ptr %4, align 8
  %13 = call ptr @agstrcanon(ptr noundef %11, ptr noundef %12)
  store ptr %13, ptr %2, align 8
  br label %14

14:                                               ; preds = %10, %9
  %15 = load ptr, ptr %2, align 8
  ret ptr %15
}

; Function Attrs: nounwind uwtable
define internal i32 @_write_canonstr(ptr noundef %0, ptr noundef %1, ptr noundef %2, i1 noundef zeroext %3) #0 {
  %5 = alloca i32, align 4
  %6 = alloca ptr, align 8
  %7 = alloca ptr, align 8
  %8 = alloca ptr, align 8
  %9 = alloca i8, align 1
  %10 = alloca ptr, align 8
  store ptr %0, ptr %6, align 8
  store ptr %1, ptr %7, align 8
  store ptr %2, ptr %8, align 8
  %11 = zext i1 %3 to i8
  store i8 %11, ptr %9, align 1
  %12 = load i8, ptr %9, align 1
  %13 = trunc i8 %12 to i1
  br i1 %13, label %14, label %17

14:                                               ; preds = %4
  %15 = load ptr, ptr %8, align 8
  %16 = call ptr @agcanonStr(ptr noundef %15)
  store ptr %16, ptr %8, align 8
  br label %27

17:                                               ; preds = %4
  %18 = load ptr, ptr %8, align 8
  %19 = call ptr @getoutputbuffer(ptr noundef %18)
  store ptr %19, ptr %10, align 8
  %20 = load ptr, ptr %10, align 8
  %21 = icmp eq ptr %20, null
  br i1 %21, label %22, label %23

22:                                               ; preds = %17
  store i32 -1, ptr %5, align 4
  br label %32

23:                                               ; preds = %17
  %24 = load ptr, ptr %8, align 8
  %25 = load ptr, ptr %10, align 8
  %26 = call ptr @_agstrcanon(ptr noundef %24, ptr noundef %25)
  store ptr %26, ptr %8, align 8
  br label %27

27:                                               ; preds = %23, %14
  %28 = load ptr, ptr %6, align 8
  %29 = load ptr, ptr %7, align 8
  %30 = load ptr, ptr %8, align 8
  %31 = call i32 @ioput(ptr noundef %28, ptr noundef %29, ptr noundef %30)
  store i32 %31, ptr %5, align 4
  br label %32

32:                                               ; preds = %27, %22
  %33 = load i32, ptr %5, align 4
  ret i32 %33
}