; Function Attrs: nounwind uwtable
define internal fastcc i32 @_write_canonstr(ptr noundef readonly captures(none) %0, ptr noundef %1, ptr noundef %2, i1 noundef zeroext %3) unnamed_addr #0 {
  %5 = tail call i64 @strlen(ptr noundef nonnull readonly dereferenceable(1) %2) #10
  %6 = shl i64 %5, 1
  %7 = add i64 %6, 2
  %spec.select.i.i = tail call i64 @llvm.umax.i64(i64 %7, i64 8192)
  %8 = load i64, ptr @getoutputbuffer.len, align 8
  %9 = icmp ugt i64 %spec.select.i.i, %8
  %.pre.i.i = load ptr, ptr @getoutputbuffer.rv, align 8
  br i1 %3, label %10, label %21

10:                                               ; preds = %4
  br i1 %9, label %11, label %getoutputbuffer.exit.i

11:                                               ; preds = %10
  %12 = tail call ptr @realloc(ptr noundef %.pre.i.i, i64 noundef %spec.select.i.i) #11
  %13 = icmp eq ptr %12, null
  br i1 %13, label %agcanonStr.exit, label %getoutputbuffer.exit.thread8.i

getoutputbuffer.exit.thread8.i:                   ; preds = %11
  store ptr %12, ptr @getoutputbuffer.rv, align 8
  store i64 %spec.select.i.i, ptr @getoutputbuffer.len, align 8
  br label %15

getoutputbuffer.exit.i:                           ; preds = %10
  %14 = icmp eq ptr %.pre.i.i, null
  br i1 %14, label %agcanonStr.exit, label %15

15:                                               ; preds = %getoutputbuffer.exit.i, %getoutputbuffer.exit.thread8.i
  %.0.i10.i = phi ptr [ %12, %getoutputbuffer.exit.thread8.i ], [ %.pre.i.i, %getoutputbuffer.exit.i ]
  %16 = tail call i32 @aghtmlstr(ptr noundef nonnull %2) #9
  %.not.i.i = icmp eq i32 %16, 0
  br i1 %.not.i.i, label %19, label %17

17:                                               ; preds = %15
  %18 = tail call i32 (ptr, ptr, ...) @sprintf(ptr noundef nonnull dereferenceable(1) %.0.i10.i, ptr noundef nonnull dereferenceable(1) @.str.1, ptr noundef nonnull %2) #9
  br label %agcanonStr.exit

19:                                               ; preds = %15
  %20 = tail call fastcc ptr @_agstrcanon(ptr noundef nonnull %2, ptr noundef nonnull %.0.i10.i)
  br label %agcanonStr.exit

21:                                               ; preds = %4
  br i1 %9, label %22, label %getoutputbuffer.exit

22:                                               ; preds = %21
  %23 = tail call ptr @realloc(ptr noundef %.pre.i.i, i64 noundef %spec.select.i.i) #11
  %24 = icmp eq ptr %23, null
  br i1 %24, label %getoutputbuffer.exit.thread, label %getoutputbuffer.exit.thread13

getoutputbuffer.exit.thread13:                    ; preds = %22
  store ptr %23, ptr @getoutputbuffer.rv, align 8
  store i64 %spec.select.i.i, ptr @getoutputbuffer.len, align 8
  br label %26

getoutputbuffer.exit:                             ; preds = %21
  %25 = icmp eq ptr %.pre.i.i, null
  br i1 %25, label %getoutputbuffer.exit.thread, label %26

26:                                               ; preds = %getoutputbuffer.exit.thread13, %getoutputbuffer.exit
  %.0.i1115 = phi ptr [ %23, %getoutputbuffer.exit.thread13 ], [ %.pre.i.i, %getoutputbuffer.exit ]
  %27 = tail call fastcc ptr @_agstrcanon(ptr noundef nonnull %2, ptr noundef nonnull %.0.i1115)
  br label %agcanonStr.exit

agcanonStr.exit:                                  ; preds = %19, %17, %getoutputbuffer.exit.i, %11, %26
  %.09 = phi ptr [ %27, %26 ], [ null, %getoutputbuffer.exit.i ], [ %.0.i10.i, %17 ], [ %20, %19 ], [ null, %11 ]
  %28 = getelementptr i8, ptr %0, i64 128
  %.val = load ptr, ptr %28, align 8
  %29 = getelementptr i8, ptr %.val, i64 8
  %.val.val = load ptr, ptr %29, align 8
  %30 = getelementptr i8, ptr %.val.val, i64 8
  %.val.val.val = load ptr, ptr %30, align 8
  %31 = tail call i32 %.val.val.val(ptr noundef %1, ptr noundef %.09) #9
  br label %getoutputbuffer.exit.thread

getoutputbuffer.exit.thread:                      ; preds = %22, %getoutputbuffer.exit, %agcanonStr.exit
  %.0 = phi i32 [ %31, %agcanonStr.exit ], [ -1, %getoutputbuffer.exit ], [ -1, %22 ]
  ret i32 %.0
}